target datalayout = "e-m:e-p270:32:32-p271:32:32-p272:64:64-i64:64-i128:128-f80:128-n8:16:32:64-S128"
target triple = "x86_64-unknown-linux-gnu"

%"class.Assimp::MDLImporter" = type <{ %"class.Assimp::BaseImporter", i32, [4 x i8], %"class.std::__cxx11::basic_string", ptr, i32, [4 x i8], ptr, ptr, i32, %"struct.Assimp::MDL::HalfLife::HL1ImportSettings", [2 x i8] }>
%"class.Assimp::BaseImporter" = type { ptr, double, double, %"class.std::__cxx11::basic_string", %"class.std::__exception_ptr::exception_ptr", ptr }
%"class.std::__exception_ptr::exception_ptr" = type { ptr }
%"class.std::__cxx11::basic_string" = type { %"struct.std::__cxx11::basic_string<char>::_Alloc_hider", i64, %union.anon }
%"struct.std::__cxx11::basic_string<char>::_Alloc_hider" = type { ptr }
%union.anon = type { i64, [8 x i8] }
%"struct.Assimp::MDL::HalfLife::HL1ImportSettings" = type { i8, i8, i8, i8, i8, i8, i8, i8, i8, i8 }
%struct.aiScene = type { i32, ptr, i32, ptr, i32, ptr, i32, ptr, i32, ptr, i32, ptr, i32, ptr, ptr, %struct.aiString, i32, ptr, ptr }
%struct.aiString = type { i32, [1024 x i8] }
%"struct.Assimp::MDL::IntSharedData_MDL7" = type <{ %"class.std::vector.33", %"class.std::vector.37", ptr, i32, [4 x i8] }>
%"class.std::vector.33" = type { %"struct.std::_Bvector_base" }
%"struct.std::_Bvector_base" = type { %"struct.std::_Bvector_base<std::allocator<bool>>::_Bvector_impl" }
%"struct.std::_Bvector_base<std::allocator<bool>>::_Bvector_impl" = type { %"struct.std::_Bvector_base<std::allocator<bool>>::_Bvector_impl_data" }
%"struct.std::_Bvector_base<std::allocator<bool>>::_Bvector_impl_data" = type { %"struct.std::_Bit_iterator", %"struct.std::_Bit_iterator", ptr }
%"struct.std::_Bit_iterator" = type { %"struct.std::_Bit_iterator_base.base", [4 x i8] }
%"struct.std::_Bit_iterator_base.base" = type <{ ptr, i32 }>
%"class.std::vector.37" = type { %"struct.std::_Vector_base.38" }
%"struct.std::_Vector_base.38" = type { %"struct.std::_Vector_base<aiMaterial *, std::allocator<aiMaterial *>>::_Vector_impl" }
%"struct.std::_Vector_base<aiMaterial *, std::allocator<aiMaterial *>>::_Vector_impl" = type { %"struct.std::_Vector_base<aiMaterial *, std::allocator<aiMaterial *>>::_Vector_impl_data" }
%"struct.std::_Vector_base<aiMaterial *, std::allocator<aiMaterial *>>::_Vector_impl_data" = type { ptr, ptr, ptr }

; Function Attrs: mustprogress nounwind uwtable
define linkonce_odr noundef nonnull align 8 dereferenceable(8) ptr @_ZNSt6vectorIP10aiMaterialSaIS1_EEixEm(ptr noundef nonnull align 8 dereferenceable(24) %this, i64 noundef %__n) #0 comdat align 2 {
entry:
  %this.addr = alloca ptr, align 8
  %__n.addr = alloca i64, align 8
  store ptr %this, ptr %this.addr, align 8
  store i64 %__n, ptr %__n.addr, align 8
  %this1 = load ptr, ptr %this.addr, align 8
  %_M_impl = getelementptr inbounds %"struct.std::_Vector_base.38", ptr %this1, i32 0, i32 0
  %_M_start = getelementptr inbounds %"struct.std::_Vector_base<aiMaterial *, std::allocator<aiMaterial *>>::_Vector_impl_data", ptr %_M_impl, i32 0, i32 0
  %0 = load ptr, ptr %_M_start, align 8
  %1 = load i64, ptr %__n.addr, align 8
  %add.ptr = getelementptr inbounds ptr, ptr %0, i64 %1
  ret ptr %add.ptr
}

; Function Attrs: mustprogress nounwind uwtable
define linkonce_odr noundef i64 @_ZNKSt6vectorIP10aiMaterialSaIS1_EE4sizeEv(ptr noundef nonnull align 8 dereferenceable(24) %this) #0 comdat align 2 {
entry:
  %this.addr = alloca ptr, align 8
  store ptr %this, ptr %this.addr, align 8
  %this1 = load ptr, ptr %this.addr, align 8
  %_M_impl = getelementptr inbounds %"struct.std::_Vector_base.38", ptr %this1, i32 0, i32 0
  %_M_finish = getelementptr inbounds %"struct.std::_Vector_base<aiMaterial *, std::allocator<aiMaterial *>>::_Vector_impl_data", ptr %_M_impl, i32 0, i32 1
  %0 = load ptr, ptr %_M_finish, align 8
  %_M_impl2 = getelementptr inbounds %"struct.std::_Vector_base.38", ptr %this1, i32 0, i32 0
  %_M_start = getelementptr inbounds %"struct.std::_Vector_base<aiMaterial *, std::allocator<aiMaterial *>>::_Vector_impl_data", ptr %_M_impl2, i32 0, i32 0
  %1 = load ptr, ptr %_M_start, align 8
  %sub.ptr.lhs.cast = ptrtoint ptr %0 to i64
  %sub.ptr.rhs.cast = ptrtoint ptr %1 to i64
  %sub.ptr.sub = sub i64 %sub.ptr.lhs.cast, %sub.ptr.rhs.cast
  %sub.ptr.div = sdiv exact i64 %sub.ptr.sub, 8
  ret i64 %sub.ptr.div
}

; Function Attrs: mustprogress uwtable
define hidden void @_ZN6Assimp11MDLImporter23CopyMaterials_3DGS_MDL7ERNS_3MDL18IntSharedData_MDL7E(ptr noundef nonnull align 8 dereferenceable(158) %this, ptr noundef nonnull align 8 dereferenceable(76) %shared) #2 align 2 {
entry:
  %this.addr = alloca ptr, align 8
  %shared.addr = alloca ptr, align 8
  %i = alloca i32, align 4
  store ptr %this, ptr %this.addr, align 8
  store ptr %shared, ptr %shared.addr, align 8
  %this1 = load ptr, ptr %this.addr, align 8
  %0 = load ptr, ptr %shared.addr, align 8
  %pcMats = getelementptr inbounds %"struct.Assimp::MDL::IntSharedData_MDL7", ptr %0, i32 0, i32 1
  %call = call noundef i64 @_ZNKSt6vectorIP10aiMaterialSaIS1_EE4sizeEv(ptr noundef nonnull align 8 dereferenceable(24) %pcMats) #16
  %conv = trunc i64 %call to i32
  %pScene = getelementptr inbounds %"class.Assimp::MDLImporter", ptr %this1, i32 0, i32 8
  %1 = load ptr, ptr %pScene, align 8
  %mNumMaterials = getelementptr inbounds %struct.aiScene, ptr %1, i32 0, i32 4
  store i32 %conv, ptr %mNumMaterials, align 8
  %pScene2 = getelementptr inbounds %"class.Assimp::MDLImporter", ptr %this1, i32 0, i32 8
  %2 = load ptr, ptr %pScene2, align 8
  %mNumMaterials3 = getelementptr inbounds %struct.aiScene, ptr %2, i32 0, i32 4
  %3 = load i32, ptr %mNumMaterials3, align 8
  %conv4 = zext i32 %3 to i64
  %4 = call { i64, i1 } @llvm.umul.with.overflow.i64(i64 %conv4, i64 8)
  %5 = extractvalue { i64, i1 } %4, 1
  %6 = extractvalue { i64, i1 } %4, 0
  %7 = select i1 %5, i64 -1, i64 %6
  %call5 = call noalias noundef nonnull ptr @_Znam(i64 noundef %7) #18
  %pScene6 = getelementptr inbounds %"class.Assimp::MDLImporter", ptr %this1, i32 0, i32 8
  %8 = load ptr, ptr %pScene6, align 8
  %mMaterials = getelementptr inbounds %struct.aiScene, ptr %8, i32 0, i32 5
  store ptr %call5, ptr %mMaterials, align 8
  store i32 0, ptr %i, align 4
  br label %for.cond

for.cond:                                         ; preds = %for.inc, %entry
  %9 = load i32, ptr %i, align 4
  %pScene7 = getelementptr inbounds %"class.Assimp::MDLImporter", ptr %this1, i32 0, i32 8
  %10 = load ptr, ptr %pScene7, align 8
  %mNumMaterials8 = getelementptr inbounds %struct.aiScene, ptr %10, i32 0, i32 4
  %11 = load i32, ptr %mNumMaterials8, align 8
  %cmp = icmp ult i32 %9, %11
  br i1 %cmp, label %for.body, label %for.end

for.body:                                         ; preds = %for.cond
  %12 = load ptr, ptr %shared.addr, align 8
  %pcMats9 = getelementptr inbounds %"struct.Assimp::MDL::IntSharedData_MDL7", ptr %12, i32 0, i32 1
  %13 = load i32, ptr %i, align 4
  %conv10 = zext i32 %13 to i64
  %call11 = call noundef nonnull align 8 dereferenceable(8) ptr @_ZNSt6vectorIP10aiMaterialSaIS1_EEixEm(ptr noundef nonnull align 8 dereferenceable(24) %pcMats9, i64 noundef %conv10) #16
  %14 = load ptr, ptr %call11, align 8
  %pScene12 = getelementptr inbounds %"class.Assimp::MDLImporter", ptr %this1, i32 0, i32 8
  %15 = load ptr, ptr %pScene12, align 8
  %mMaterials13 = getelementptr inbounds %struct.aiScene, ptr %15, i32 0, i32 5
  %16 = load ptr, ptr %mMaterials13, align 8
  %17 = load i32, ptr %i, align 4
  %idxprom = zext i32 %17 to i64
  %arrayidx = getelementptr inbounds ptr, ptr %16, i64 %idxprom
  store ptr %14, ptr %arrayidx, align 8
  br label %for.inc

for.inc:                                          ; preds = %for.body
  %18 = load i32, ptr %i, align 4
  %inc = add i32 %18, 1
  store i32 %inc, ptr %i, align 4
  br label %for.cond, !llvm.loop !53

for.end:                                          ; preds = %for.cond
  ret void
}