; Function Attrs: mustprogress uwtable
define hidden void @_ZN6Assimp11MDLImporter23CopyMaterials_3DGS_MDL7ERNS_3MDL18IntSharedData_MDL7E(ptr nocapture noundef nonnull readonly align 8 dereferenceable(158) %this, ptr nocapture noundef nonnull readonly align 8 dereferenceable(76) %shared) local_unnamed_addr #2 align 2 {
entry:
  %pcMats = getelementptr inbounds i8, ptr %shared, i64 40
  %_M_finish.i = getelementptr inbounds i8, ptr %shared, i64 48
  %0 = load ptr, ptr %_M_finish.i, align 8
  %1 = load ptr, ptr %pcMats, align 8
  %sub.ptr.lhs.cast.i = ptrtoint ptr %0 to i64
  %sub.ptr.rhs.cast.i = ptrtoint ptr %1 to i64
  %sub.ptr.sub.i = sub i64 %sub.ptr.lhs.cast.i, %sub.ptr.rhs.cast.i
  %sub.ptr.div.i = lshr exact i64 %sub.ptr.sub.i, 3
  %conv = trunc i64 %sub.ptr.div.i to i32
  %pScene = getelementptr inbounds i8, ptr %this, i64 136
  %2 = load ptr, ptr %pScene, align 8
  %mNumMaterials = getelementptr inbounds i8, ptr %2, i64 32
  store i32 %conv, ptr %mNumMaterials, align 8
  %3 = load ptr, ptr %pScene, align 8
  %mNumMaterials3 = getelementptr inbounds i8, ptr %3, i64 32
  %4 = load i32, ptr %mNumMaterials3, align 8
  %conv4 = zext i32 %4 to i64
  %5 = shl nuw nsw i64 %conv4, 3
  %call5 = tail call noalias noundef nonnull ptr @_Znam(i64 noundef %5) #26
  %mMaterials = getelementptr inbounds i8, ptr %3, i64 40
  store ptr %call5, ptr %mMaterials, align 8
  %6 = load ptr, ptr %pScene, align 8
  %mNumMaterials85 = getelementptr inbounds i8, ptr %6, i64 32
  %7 = load i32, ptr %mNumMaterials85, align 8
  %cmp6.not = icmp eq i32 %7, 0
  br i1 %cmp6.not, label %for.end, label %for.body

for.body:                                         ; preds = %entry, %for.body
  %indvars.iv = phi i64 [ %indvars.iv.next, %for.body ], [ 0, %entry ]
  %8 = phi ptr [ %12, %for.body ], [ %6, %entry ]
  %9 = load ptr, ptr %pcMats, align 8
  %add.ptr.i = getelementptr inbounds ptr, ptr %9, i64 %indvars.iv
  %10 = load ptr, ptr %add.ptr.i, align 8
  %mMaterials13 = getelementptr inbounds i8, ptr %8, i64 40
  %11 = load ptr, ptr %mMaterials13, align 8
  %arrayidx = getelementptr inbounds ptr, ptr %11, i64 %indvars.iv
  store ptr %10, ptr %arrayidx, align 8
  %indvars.iv.next = add nuw nsw i64 %indvars.iv, 1
  %12 = load ptr, ptr %pScene, align 8
  %mNumMaterials8 = getelementptr inbounds i8, ptr %12, i64 32
  %13 = load i32, ptr %mNumMaterials8, align 8
  %14 = zext i32 %13 to i64
  %cmp = icmp ult i64 %indvars.iv.next, %14
  br i1 %cmp, label %for.body, label %for.end, !llvm.loop !28

for.end:                                          ; preds = %for.body, %entry
  ret void
}